target datalayout = "e-m:e-p270:32:32-p271:32:32-p272:64:64-i64:64-i128:128-f80:128-n8:16:32:64-S128"
target triple = "x86_64-pc-linux-gnu"

%"class.icu_77::Locale" = type <{ %"class.icu_77::UObject", [12 x i8], [6 x i8], [4 x i8], [2 x i8], i32, [4 x i8], ptr, [157 x i8], [3 x i8], ptr, i8, [7 x i8] }>
%"class.icu_77::UObject" = type { ptr }

; Function Attrs: mustprogress uwtable
define noundef nonnull align 8 dereferenceable(64) ptr @_ZNK6icu_7722LocaleDisplayNamesImpl17localeDisplayNameEPKcRNS_13UnicodeStringE(ptr noundef nonnull align 8 dereferenceable(1206) %0, ptr noundef %1, ptr noundef nonnull align 8 dereferenceable(64) %2) unnamed_addr #1 align 2 personality ptr @__gxx_personality_v0 {
  %4 = alloca ptr, align 8
  %5 = alloca ptr, align 8
  %6 = alloca ptr, align 8
  %7 = alloca %"class.icu_77::Locale", align 8
  %8 = alloca ptr, align 8
  %9 = alloca i32, align 4
  store ptr %0, ptr %4, align 8, !tbaa !38
  store ptr %1, ptr %5, align 8, !tbaa !17
  store ptr %2, ptr %6, align 8, !tbaa !31
  %10 = load ptr, ptr %4, align 8
  call void @llvm.lifetime.start.p0(i64 224, ptr %7) #13
  %11 = load ptr, ptr %5, align 8, !tbaa !17
  call void @_ZN6icu_776LocaleC1EPKcS2_S2_S2_(ptr noundef nonnull align 8 dereferenceable(217) %7, ptr noundef %11, ptr noundef null, ptr noundef null, ptr noundef null)
  %12 = load ptr, ptr %6, align 8, !tbaa !31
  %13 = load ptr, ptr %10, align 8, !tbaa !42
  %14 = getelementptr inbounds ptr, ptr %13, i64 6
  %15 = load ptr, ptr %14, align 8
  %16 = invoke noundef nonnull align 8 dereferenceable(64) ptr %15(ptr noundef nonnull align 8 dereferenceable(1206) %10, ptr noundef nonnull align 8 dereferenceable(217) %7, ptr noundef nonnull align 8 dereferenceable(64) %12)
          to label %17 unwind label %18

17:                                               ; preds = %3
  call void @_ZN6icu_776LocaleD1Ev(ptr noundef nonnull align 8 dereferenceable(217) %7) #13
  call void @llvm.lifetime.end.p0(i64 224, ptr %7) #13
  ret ptr %16

18:                                               ; preds = %3
  %19 = landingpad { ptr, i32 }
          cleanup
  %20 = extractvalue { ptr, i32 } %19, 0
  store ptr %20, ptr %8, align 8
  %21 = extractvalue { ptr, i32 } %19, 1
  store i32 %21, ptr %9, align 4
  call void @_ZN6icu_776LocaleD1Ev(ptr noundef nonnull align 8 dereferenceable(217) %7) #13
  call void @llvm.lifetime.end.p0(i64 224, ptr %7) #13
  br label %22

22:                                               ; preds = %18
  %23 = load ptr, ptr %8, align 8
  %24 = load i32, ptr %9, align 4
  %25 = insertvalue { ptr, i32 } poison, ptr %23, 0
  %26 = insertvalue { ptr, i32 } %25, i32 %24, 1
  resume { ptr, i32 } %26
}