; Function Attrs: mustprogress uwtable
define noundef nonnull align 8 dereferenceable(64) ptr @_ZNK6icu_7722LocaleDisplayNamesImpl17localeDisplayNameEPKcRNS_13UnicodeStringE(ptr noundef nonnull align 8 dereferenceable(1206) %0, ptr noundef %1, ptr noundef nonnull align 8 dereferenceable(64) %2) unnamed_addr #1 align 2 personality ptr @__gxx_personality_v0 {
  %4 = alloca %"class.icu_77::Locale", align 8
  call void @llvm.lifetime.start.p0(i64 224, ptr nonnull %4) #19
  call void @_ZN6icu_776LocaleC1EPKcS2_S2_S2_(ptr noundef nonnull align 8 dereferenceable(217) %4, ptr noundef %1, ptr noundef null, ptr noundef null, ptr noundef null)
  %5 = load ptr, ptr %0, align 8, !tbaa !21
  %6 = getelementptr inbounds nuw i8, ptr %5, i64 48
  %7 = load ptr, ptr %6, align 8
  %8 = invoke noundef nonnull align 8 dereferenceable(64) ptr %7(ptr noundef nonnull align 8 dereferenceable(1206) %0, ptr noundef nonnull align 8 dereferenceable(217) %4, ptr noundef nonnull align 8 dereferenceable(64) %2)
          to label %9 unwind label %10

9:                                                ; preds = %3
  call void @_ZN6icu_776LocaleD1Ev(ptr noundef nonnull align 8 dereferenceable(217) %4) #19
  call void @llvm.lifetime.end.p0(i64 224, ptr nonnull %4) #19
  ret ptr %8

10:                                               ; preds = %3
  %11 = landingpad { ptr, i32 }
          cleanup
  call void @_ZN6icu_776LocaleD1Ev(ptr noundef nonnull align 8 dereferenceable(217) %4) #19
  call void @llvm.lifetime.end.p0(i64 224, ptr nonnull %4) #19
  resume { ptr, i32 } %11
}